target datalayout = "e-m:e-p270:32:32-p271:32:32-p272:64:64-i64:64-i128:128-f80:128-n8:16:32:64-S128"
target triple = "x86_64-pc-linux-gnu"

%struct.PJconsts = type { ptr, ptr, ptr, ptr, ptr, ptr, ptr, ptr, ptr, ptr, ptr, ptr, i32, ptr, ptr, ptr, ptr, ptr, ptr, ptr, ptr, double, double, double, double, double, double, double, double, double, double, double, double, double, double, double, double, double, double, double, double, double, double, i32, i32, i32, i32, i32, i32, i32, i32, i32, i32, i32, ptr, ptr, ptr, ptr, ptr, ptr, double, double, double, double, double, double, double, double, double, double, double, i32, [7 x double], i32, ptr, ptr, double, double, i32, [4 x i8], %"class.std::shared_ptr", i8, double, i8, %"class.std::__cxx11::basic_string", %"class.std::__cxx11::basic_string", %"class.std::__cxx11::basic_string", i8, %"class.std::vector", i32, %"class.std::vector.3", i32, i8, i8, i8, ptr }
%"class.std::shared_ptr" = type { %"class.std::__shared_ptr" }
%"class.std::__shared_ptr" = type { ptr, %"class.std::__shared_count" }
%"class.std::__shared_count" = type { ptr }
%"class.std::__cxx11::basic_string" = type { %"struct.std::__cxx11::basic_string<char>::_Alloc_hider", i64, %union.anon }
%"struct.std::__cxx11::basic_string<char>::_Alloc_hider" = type { ptr }
%union.anon = type { i64, [8 x i8] }
%"class.std::vector" = type { %"struct.std::_Vector_base" }
%"struct.std::_Vector_base" = type { %"struct.std::_Vector_base<osgeo::proj::operation::GridDescription, std::allocator<osgeo::proj::operation::GridDescription>>::_Vector_impl" }
%"struct.std::_Vector_base<osgeo::proj::operation::GridDescription, std::allocator<osgeo::proj::operation::GridDescription>>::_Vector_impl" = type { %"struct.std::_Vector_base<osgeo::proj::operation::GridDescription, std::allocator<osgeo::proj::operation::GridDescription>>::_Vector_impl_data" }
%"struct.std::_Vector_base<osgeo::proj::operation::GridDescription, std::allocator<osgeo::proj::operation::GridDescription>>::_Vector_impl_data" = type { ptr, ptr, ptr }
%"class.std::vector.3" = type { %"struct.std::_Vector_base.4" }
%"struct.std::_Vector_base.4" = type { %"struct.std::_Vector_base<PJCoordOperation, std::allocator<PJCoordOperation>>::_Vector_impl" }
%"struct.std::_Vector_base<PJCoordOperation, std::allocator<PJCoordOperation>>::_Vector_impl" = type { %"struct.std::_Vector_base<PJCoordOperation, std::allocator<PJCoordOperation>>::_Vector_impl_data" }
%"struct.std::_Vector_base<PJCoordOperation, std::allocator<PJCoordOperation>>::_Vector_impl_data" = type { ptr, ptr, ptr }
%"struct.(anonymous namespace)::pj_geos_data" = type { double, double, double, double, double, double, double, i32 }
%struct.PJ_LP = type { double, double }
%struct.PJ_XY = type { double, double }

; Function Attrs: mustprogress uwtable
define internal { double, double } @_ZL14geos_e_inverse5PJ_XYP8PJconsts(double %0, double %1, ptr noundef %2) #0 {
  %4 = alloca %struct.PJ_LP, align 8
  %5 = alloca %struct.PJ_XY, align 8
  %6 = alloca ptr, align 8
  %7 = alloca ptr, align 8
  %8 = alloca double, align 8
  %9 = alloca double, align 8
  %10 = alloca double, align 8
  %11 = alloca double, align 8
  %12 = alloca double, align 8
  %13 = alloca double, align 8
  %14 = alloca double, align 8
  %15 = alloca i32, align 4
  %16 = getelementptr inbounds nuw { double, double }, ptr %5, i32 0, i32 0
  store double %0, ptr %16, align 8
  %17 = getelementptr inbounds nuw { double, double }, ptr %5, i32 0, i32 1
  store double %1, ptr %17, align 8
  store ptr %2, ptr %6, align 8, !tbaa !3
  call void @llvm.memset.p0.i64(ptr align 8 %4, i8 0, i64 16, i1 false)
  call void @llvm.lifetime.start.p0(i64 8, ptr %7) #8
  %18 = load ptr, ptr %6, align 8, !tbaa !3
  %19 = getelementptr inbounds nuw %struct.PJconsts, ptr %18, i32 0, i32 11
  %20 = load ptr, ptr %19, align 8, !tbaa !43
  store ptr %20, ptr %7, align 8, !tbaa !41
  call void @llvm.lifetime.start.p0(i64 8, ptr %8) #8
  call void @llvm.lifetime.start.p0(i64 8, ptr %9) #8
  call void @llvm.lifetime.start.p0(i64 8, ptr %10) #8
  call void @llvm.lifetime.start.p0(i64 8, ptr %11) #8
  call void @llvm.lifetime.start.p0(i64 8, ptr %12) #8
  call void @llvm.lifetime.start.p0(i64 8, ptr %13) #8
  store double -1.000000e+00, ptr %8, align 8, !tbaa !64
  %21 = load ptr, ptr %7, align 8, !tbaa !41
  %22 = getelementptr inbounds nuw %"struct.(anonymous namespace)::pj_geos_data", ptr %21, i32 0, i32 7
  %23 = load i32, ptr %22, align 8, !tbaa !50
  %24 = icmp ne i32 %23, 0
  br i1 %24, label %25, label %43

25:                                               ; preds = %3
  %26 = getelementptr inbounds nuw %struct.PJ_XY, ptr %5, i32 0, i32 1
  %27 = load double, ptr %26, align 8, !tbaa !65
  %28 = load ptr, ptr %7, align 8, !tbaa !41
  %29 = getelementptr inbounds nuw %"struct.(anonymous namespace)::pj_geos_data", ptr %28, i32 0, i32 5
  %30 = load double, ptr %29, align 8, !tbaa !52
  %31 = fdiv double %27, %30
  %32 = call double @tan(double noundef %31) #8, !tbaa !57
  store double %32, ptr %10, align 8, !tbaa !64
  %33 = getelementptr inbounds nuw %struct.PJ_XY, ptr %5, i32 0, i32 0
  %34 = load double, ptr %33, align 8, !tbaa !67
  %35 = load ptr, ptr %7, align 8, !tbaa !41
  %36 = getelementptr inbounds nuw %"struct.(anonymous namespace)::pj_geos_data", ptr %35, i32 0, i32 5
  %37 = load double, ptr %36, align 8, !tbaa !52
  %38 = fdiv double %34, %37
  %39 = call double @tan(double noundef %38) #8, !tbaa !57
  %40 = load double, ptr %10, align 8, !tbaa !64
  %41 = call double @hypot(double noundef 1.000000e+00, double noundef %40) #8, !tbaa !57
  %42 = fmul double %39, %41
  store double %42, ptr %9, align 8, !tbaa !64
  br label %61

43:                                               ; preds = %3
  %44 = getelementptr inbounds nuw %struct.PJ_XY, ptr %5, i32 0, i32 0
  %45 = load double, ptr %44, align 8, !tbaa !67
  %46 = load ptr, ptr %7, align 8, !tbaa !41
  %47 = getelementptr inbounds nuw %"struct.(anonymous namespace)::pj_geos_data", ptr %46, i32 0, i32 5
  %48 = load double, ptr %47, align 8, !tbaa !52
  %49 = fdiv double %45, %48
  %50 = call double @tan(double noundef %49) #8, !tbaa !57
  store double %50, ptr %9, align 8, !tbaa !64
  %51 = getelementptr inbounds nuw %struct.PJ_XY, ptr %5, i32 0, i32 1
  %52 = load double, ptr %51, align 8, !tbaa !65
  %53 = load ptr, ptr %7, align 8, !tbaa !41
  %54 = getelementptr inbounds nuw %"struct.(anonymous namespace)::pj_geos_data", ptr %53, i32 0, i32 5
  %55 = load double, ptr %54, align 8, !tbaa !52
  %56 = fdiv double %52, %55
  %57 = call double @tan(double noundef %56) #8, !tbaa !57
  %58 = load double, ptr %9, align 8, !tbaa !64
  %59 = call double @hypot(double noundef 1.000000e+00, double noundef %58) #8, !tbaa !57
  %60 = fmul double %57, %59
  store double %60, ptr %10, align 8, !tbaa !64
  br label %61

61:                                               ; preds = %43, %25
  %62 = load double, ptr %10, align 8, !tbaa !64
  %63 = load ptr, ptr %7, align 8, !tbaa !41
  %64 = getelementptr inbounds nuw %"struct.(anonymous namespace)::pj_geos_data", ptr %63, i32 0, i32 1
  %65 = load double, ptr %64, align 8, !tbaa !58
  %66 = fdiv double %62, %65
  store double %66, ptr %11, align 8, !tbaa !64
  %67 = load double, ptr %9, align 8, !tbaa !64
  %68 = load double, ptr %9, align 8, !tbaa !64
  %69 = load double, ptr %11, align 8, !tbaa !64
  %70 = load double, ptr %11, align 8, !tbaa !64
  %71 = fmul double %69, %70
  %72 = call double @llvm.fmuladd.f64(double %67, double %68, double %71)
  %73 = load double, ptr %8, align 8, !tbaa !64
  %74 = load double, ptr %8, align 8, !tbaa !64
  %75 = call double @llvm.fmuladd.f64(double %73, double %74, double %72)
  store double %75, ptr %11, align 8, !tbaa !64
  %76 = load ptr, ptr %7, align 8, !tbaa !41
  %77 = getelementptr inbounds nuw %"struct.(anonymous namespace)::pj_geos_data", ptr %76, i32 0, i32 4
  %78 = load double, ptr %77, align 8, !tbaa !53
  %79 = fmul double 2.000000e+00, %78
  %80 = load double, ptr %8, align 8, !tbaa !64
  %81 = fmul double %79, %80
  store double %81, ptr %12, align 8, !tbaa !64
  call void @llvm.lifetime.start.p0(i64 8, ptr %14) #8
  %82 = load double, ptr %12, align 8, !tbaa !64
  %83 = load double, ptr %12, align 8, !tbaa !64
  %84 = load double, ptr %11, align 8, !tbaa !64
  %85 = fmul double 4.000000e+00, %84
  %86 = load ptr, ptr %7, align 8, !tbaa !41
  %87 = getelementptr inbounds nuw %"struct.(anonymous namespace)::pj_geos_data", ptr %86, i32 0, i32 6
  %88 = load double, ptr %87, align 8, !tbaa !54
  %89 = fmul double %85, %88
  %90 = fneg double %89
  %91 = call double @llvm.fmuladd.f64(double %82, double %83, double %90)
  store double %91, ptr %14, align 8, !tbaa !64
  %92 = load double, ptr %14, align 8, !tbaa !64
  %93 = fcmp olt double %92, 0.000000e+00
  br i1 %93, label %94, label %97

94:                                               ; preds = %61
  %95 = load ptr, ptr %6, align 8, !tbaa !3
  %96 = call i32 @proj_errno_set(ptr noundef %95, i32 noundef 2050)
  store i32 1, ptr %15, align 4
  br label %140

97:                                               ; preds = %61
  %98 = load double, ptr %12, align 8, !tbaa !64
  %99 = fneg double %98
  %100 = load double, ptr %14, align 8, !tbaa !64
  %101 = call double @sqrt(double noundef %100) #8, !tbaa !57
  %102 = fsub double %99, %101
  %103 = load double, ptr %11, align 8, !tbaa !64
  %104 = fmul double 2.000000e+00, %103
  %105 = fdiv double %102, %104
  store double %105, ptr %13, align 8, !tbaa !64
  %106 = load ptr, ptr %7, align 8, !tbaa !41
  %107 = getelementptr inbounds nuw %"struct.(anonymous namespace)::pj_geos_data", ptr %106, i32 0, i32 4
  %108 = load double, ptr %107, align 8, !tbaa !53
  %109 = load double, ptr %13, align 8, !tbaa !64
  %110 = load double, ptr %8, align 8, !tbaa !64
  %111 = call double @llvm.fmuladd.f64(double %109, double %110, double %108)
  store double %111, ptr %8, align 8, !tbaa !64
  %112 = load double, ptr %13, align 8, !tbaa !64
  %113 = load double, ptr %9, align 8, !tbaa !64
  %114 = fmul double %113, %112
  store double %114, ptr %9, align 8, !tbaa !64
  %115 = load double, ptr %13, align 8, !tbaa !64
  %116 = load double, ptr %10, align 8, !tbaa !64
  %117 = fmul double %116, %115
  store double %117, ptr %10, align 8, !tbaa !64
  %118 = load double, ptr %9, align 8, !tbaa !64
  %119 = load double, ptr %8, align 8, !tbaa !64
  %120 = call double @atan2(double noundef %118, double noundef %119) #8, !tbaa !57
  %121 = getelementptr inbounds nuw %struct.PJ_LP, ptr %4, i32 0, i32 0
  store double %120, ptr %121, align 8, !tbaa !68
  %122 = load double, ptr %10, align 8, !tbaa !64
  %123 = getelementptr inbounds nuw %struct.PJ_LP, ptr %4, i32 0, i32 0
  %124 = load double, ptr %123, align 8, !tbaa !68
  %125 = call double @cos(double noundef %124) #8, !tbaa !57
  %126 = fmul double %122, %125
  %127 = load double, ptr %8, align 8, !tbaa !64
  %128 = fdiv double %126, %127
  %129 = call double @atan(double noundef %128) #8, !tbaa !57
  %130 = getelementptr inbounds nuw %struct.PJ_LP, ptr %4, i32 0, i32 1
  store double %129, ptr %130, align 8, !tbaa !70
  %131 = load ptr, ptr %7, align 8, !tbaa !41
  %132 = getelementptr inbounds nuw %"struct.(anonymous namespace)::pj_geos_data", ptr %131, i32 0, i32 3
  %133 = load double, ptr %132, align 8, !tbaa !61
  %134 = getelementptr inbounds nuw %struct.PJ_LP, ptr %4, i32 0, i32 1
  %135 = load double, ptr %134, align 8, !tbaa !70
  %136 = call double @tan(double noundef %135) #8, !tbaa !57
  %137 = fmul double %133, %136
  %138 = call double @atan(double noundef %137) #8, !tbaa !57
  %139 = getelementptr inbounds nuw %struct.PJ_LP, ptr %4, i32 0, i32 1
  store double %138, ptr %139, align 8, !tbaa !70
  store i32 1, ptr %15, align 4
  br label %140

140:                                              ; preds = %97, %94
  call void @llvm.lifetime.end.p0(i64 8, ptr %14) #8
  call void @llvm.lifetime.end.p0(i64 8, ptr %13) #8
  call void @llvm.lifetime.end.p0(i64 8, ptr %12) #8
  call void @llvm.lifetime.end.p0(i64 8, ptr %11) #8
  call void @llvm.lifetime.end.p0(i64 8, ptr %10) #8
  call void @llvm.lifetime.end.p0(i64 8, ptr %9) #8
  call void @llvm.lifetime.end.p0(i64 8, ptr %8) #8
  call void @llvm.lifetime.end.p0(i64 8, ptr %7) #8
  %141 = load { double, double }, ptr %4, align 8
  ret { double, double } %141
}