; Function Attrs: mustprogress uwtable
define internal { double, double } @_ZL14geos_e_inverse5PJ_XYP8PJconsts(double %0, double %1, ptr noundef %2) #0 {
  %4 = getelementptr inbounds nuw i8, ptr %2, i64 88
  %5 = load ptr, ptr %4, align 8, !tbaa !40
  %6 = getelementptr inbounds nuw i8, ptr %5, i64 56
  %7 = load i32, ptr %6, align 8, !tbaa !45
  %.not = icmp eq i32 %7, 0
  %8 = getelementptr inbounds nuw i8, ptr %5, i64 40
  %9 = load double, ptr %8, align 8, !tbaa !48
  br i1 %.not, label %17, label %10

10:                                               ; preds = %3
  %11 = fdiv double %1, %9
  %12 = tail call double @tan(double noundef %11) #8, !tbaa !53
  %13 = fdiv double %0, %9
  %14 = tail call double @tan(double noundef %13) #8, !tbaa !53
  %15 = tail call double @hypot(double noundef 1.000000e+00, double noundef %12) #8, !tbaa !53
  %16 = fmul double %14, %15
  br label %24

17:                                               ; preds = %3
  %18 = fdiv double %0, %9
  %19 = tail call double @tan(double noundef %18) #8, !tbaa !53
  %20 = fdiv double %1, %9
  %21 = tail call double @tan(double noundef %20) #8, !tbaa !53
  %22 = tail call double @hypot(double noundef 1.000000e+00, double noundef %19) #8, !tbaa !53
  %23 = fmul double %21, %22
  br label %24

24:                                               ; preds = %17, %10
  %.042 = phi double [ %16, %10 ], [ %19, %17 ]
  %.0 = phi double [ %12, %10 ], [ %23, %17 ]
  %25 = getelementptr inbounds nuw i8, ptr %5, i64 8
  %26 = load double, ptr %25, align 8, !tbaa !54
  %27 = fdiv double %.0, %26
  %28 = fmul double %27, %27
  %29 = tail call double @llvm.fmuladd.f64(double %.042, double %.042, double %28)
  %30 = fadd double %29, 1.000000e+00
  %31 = getelementptr inbounds nuw i8, ptr %5, i64 32
  %32 = load double, ptr %31, align 8, !tbaa !49
  %33 = fmul double %32, -2.000000e+00
  %34 = fmul double %30, 4.000000e+00
  %35 = getelementptr inbounds nuw i8, ptr %5, i64 48
  %36 = load double, ptr %35, align 8, !tbaa !50
  %37 = fneg double %36
  %38 = fmul double %34, %37
  %39 = tail call double @llvm.fmuladd.f64(double %33, double %33, double %38)
  %40 = fcmp olt double %39, 0.000000e+00
  br i1 %40, label %41, label %43

41:                                               ; preds = %24
  %42 = tail call i32 @proj_errno_set(ptr noundef nonnull %2, i32 noundef 2050)
  br label %62

43:                                               ; preds = %24
  %44 = fneg double %33
  %45 = tail call double @sqrt(double noundef %39) #8, !tbaa !53
  %46 = fsub double %44, %45
  %47 = fmul double %30, 2.000000e+00
  %48 = fdiv double %46, %47
  %49 = fsub double %32, %48
  %50 = fmul double %.042, %48
  %51 = fmul double %.0, %48
  %52 = tail call double @atan2(double noundef %50, double noundef %49) #8, !tbaa !53
  %53 = tail call double @cos(double noundef %52) #8, !tbaa !53
  %54 = fmul double %53, %51
  %55 = fdiv double %54, %49
  %56 = tail call double @atan(double noundef %55) #8, !tbaa !53
  %57 = getelementptr inbounds nuw i8, ptr %5, i64 24
  %58 = load double, ptr %57, align 8, !tbaa !57
  %59 = tail call double @tan(double noundef %56) #8, !tbaa !53
  %60 = fmul double %58, %59
  %61 = tail call double @atan(double noundef %60) #8, !tbaa !53
  br label %62

62:                                               ; preds = %43, %41
  %.sroa.4.0 = phi double [ 0.000000e+00, %41 ], [ %61, %43 ]
  %.sroa.041.0 = phi double [ 0.000000e+00, %41 ], [ %52, %43 ]
  %.fca.0.insert = insertvalue { double, double } poison, double %.sroa.041.0, 0
  %.fca.1.insert = insertvalue { double, double } %.fca.0.insert, double %.sroa.4.0, 1
  ret { double, double } %.fca.1.insert
}